target datalayout = "e-m:e-p270:32:32-p271:32:32-p272:64:64-i64:64-i128:128-f80:128-n8:16:32:64-S128"
target triple = "x86_64-pc-linux-gnu"

%struct.AVProbeData = type { ptr, ptr, i32, ptr }
%struct.AVFormatContext = type { ptr, ptr, ptr, ptr, ptr, i32, i32, ptr, i32, ptr, i32, ptr, ptr, i64, i64, i64, i32, i32, i32, i64, i64, ptr, i32, i32, ptr, i32, i32, i32, i32, ptr, i64, i32, i32, %struct.AVIOInterruptCB, i32, i32, i32, i32, i64, i32, i32, i32, i32, i32, i32, i32, i32, i32, i32, i32, i32, i64, i32, i32, i32, i32, i32, ptr, ptr, ptr, ptr, i32, ptr, ptr, ptr, ptr, i32, ptr, ptr, i64, ptr, ptr, ptr, i64 }
%struct.AVIOInterruptCB = type { ptr, ptr }
%struct.AVStream = type { ptr, i32, i32, ptr, ptr, %struct.AVRational, i64, i64, i64, i32, i32, %struct.AVRational, ptr, %struct.AVRational, %struct.AVPacket, i32, %struct.AVRational, i32 }
%struct.AVPacket = type { ptr, i64, i64, ptr, i32, i32, i32, ptr, i32, i64, i64, ptr, ptr, %struct.AVRational }
%struct.AVRational = type { i32, i32 }
%struct.AVCodecParameters = type { i32, i32, i32, ptr, i32, ptr, i32, i32, i64, i32, i32, i32, i32, i32, i32, %struct.AVRational, %struct.AVRational, i32, i32, i32, i32, i32, i32, i32, %struct.AVChannelLayout, i32, i32, i32, i32, i32, i32 }
%struct.AVChannelLayout = type { i32, i32, %union.anon, ptr }
%union.anon = type { i64 }

@.str = private unnamed_addr constant [4 x i8] c"apc\00", align 1
@.str.1 = private unnamed_addr constant [9 x i8] c"CRYO APC\00", align 1
@ff_apc_demuxer = constant { { ptr, ptr, i32, [4 x i8], ptr, ptr, ptr, ptr }, i32, i32, i32, [4 x i8], ptr, ptr, ptr, ptr, ptr, ptr, ptr, ptr, ptr, ptr } { { ptr, ptr, i32, [4 x i8], ptr, ptr, ptr, ptr } { ptr @.str, ptr @.str.1, i32 0, [4 x i8] zeroinitializer, ptr null, ptr null, ptr null, ptr null }, i32 0, i32 0, i32 0, [4 x i8] zeroinitializer, ptr @apc_probe, ptr @apc_read_header, ptr @apc_read_packet, ptr null, ptr null, ptr null, ptr null, ptr null, ptr null, ptr null }, align 8
@.str.2 = private unnamed_addr constant [9 x i8] c"CRYO_APC\00", align 1

; Function Attrs: nounwind uwtable
define internal i32 @apc_probe(ptr noundef %0) #0 {
  %2 = alloca i32, align 4
  %3 = alloca ptr, align 8
  store ptr %0, ptr %3, align 8, !tbaa !4
  %4 = load ptr, ptr %3, align 8, !tbaa !4
  %5 = getelementptr inbounds nuw %struct.AVProbeData, ptr %4, i32 0, i32 1
  %6 = load ptr, ptr %5, align 8, !tbaa !9
  %7 = call i32 @strncmp(ptr noundef %6, ptr noundef @.str.2, i64 noundef 8) #4
  %8 = icmp ne i32 %7, 0
  br i1 %8, label %10, label %9

9:                                                ; preds = %1
  store i32 100, ptr %2, align 4
  br label %11

10:                                               ; preds = %1
  store i32 0, ptr %2, align 4
  br label %11

11:                                               ; preds = %10, %9
  %12 = load i32, ptr %2, align 4
  ret i32 %12
}

; Function Attrs: nounwind uwtable
define internal i32 @apc_read_header(ptr noundef %0) #0 {
  %2 = alloca i32, align 4
  %3 = alloca ptr, align 8
  %4 = alloca ptr, align 8
  %5 = alloca ptr, align 8
  %6 = alloca i32, align 4
  %7 = alloca i32, align 4
  %8 = alloca i32, align 4
  store ptr %0, ptr %3, align 8, !tbaa !13
  call void @llvm.lifetime.start.p0(i64 8, ptr %4) #5
  %9 = load ptr, ptr %3, align 8, !tbaa !13
  %10 = getelementptr inbounds nuw %struct.AVFormatContext, ptr %9, i32 0, i32 4
  %11 = load ptr, ptr %10, align 8, !tbaa !15
  store ptr %11, ptr %4, align 8, !tbaa !30
  call void @llvm.lifetime.start.p0(i64 8, ptr %5) #5
  call void @llvm.lifetime.start.p0(i64 4, ptr %6) #5
  call void @llvm.lifetime.start.p0(i64 4, ptr %7) #5
  %12 = load ptr, ptr %4, align 8, !tbaa !30
  %13 = call i32 @avio_rl32(ptr noundef %12)
  %14 = load ptr, ptr %4, align 8, !tbaa !30
  %15 = call i32 @avio_rl32(ptr noundef %14)
  %16 = load ptr, ptr %4, align 8, !tbaa !30
  %17 = call i32 @avio_rl32(ptr noundef %16)
  %18 = load ptr, ptr %3, align 8, !tbaa !13
  %19 = call ptr @avformat_new_stream(ptr noundef %18, ptr noundef null)
  store ptr %19, ptr %5, align 8, !tbaa !31
  %20 = load ptr, ptr %5, align 8, !tbaa !31
  %21 = icmp ne ptr %20, null
  br i1 %21, label %23, label %22

22:                                               ; preds = %1
  store i32 -12, ptr %2, align 4
  store i32 1, ptr %8, align 4
  br label %90

23:                                               ; preds = %1
  %24 = load ptr, ptr %5, align 8, !tbaa !31
  %25 = getelementptr inbounds nuw %struct.AVStream, ptr %24, i32 0, i32 3
  %26 = load ptr, ptr %25, align 8, !tbaa !33
  %27 = getelementptr inbounds nuw %struct.AVCodecParameters, ptr %26, i32 0, i32 0
  store i32 1, ptr %27, align 8, !tbaa !40
  %28 = load ptr, ptr %5, align 8, !tbaa !31
  %29 = getelementptr inbounds nuw %struct.AVStream, ptr %28, i32 0, i32 3
  %30 = load ptr, ptr %29, align 8, !tbaa !33
  %31 = getelementptr inbounds nuw %struct.AVCodecParameters, ptr %30, i32 0, i32 1
  store i32 69661, ptr %31, align 4, !tbaa !43
  %32 = load ptr, ptr %4, align 8, !tbaa !30
  %33 = call i32 @avio_rl32(ptr noundef %32)
  %34 = load ptr, ptr %4, align 8, !tbaa !30
  %35 = call i32 @avio_rl32(ptr noundef %34)
  %36 = load ptr, ptr %5, align 8, !tbaa !31
  %37 = getelementptr inbounds nuw %struct.AVStream, ptr %36, i32 0, i32 3
  %38 = load ptr, ptr %37, align 8, !tbaa !33
  %39 = getelementptr inbounds nuw %struct.AVCodecParameters, ptr %38, i32 0, i32 25
  store i32 %35, ptr %39, align 8, !tbaa !44
  %40 = load ptr, ptr %3, align 8, !tbaa !13
  %41 = load ptr, ptr %5, align 8, !tbaa !31
  %42 = getelementptr inbounds nuw %struct.AVStream, ptr %41, i32 0, i32 3
  %43 = load ptr, ptr %42, align 8, !tbaa !33
  %44 = load ptr, ptr %4, align 8, !tbaa !30
  %45 = call i32 @ff_get_extradata(ptr noundef %40, ptr noundef %43, ptr noundef %44, i32 noundef 8)
  store i32 %45, ptr %6, align 4, !tbaa !45
  %46 = icmp slt i32 %45, 0
  br i1 %46, label %47, label %49

47:                                               ; preds = %23
  %48 = load i32, ptr %6, align 4, !tbaa !45
  store i32 %48, ptr %2, align 4
  store i32 1, ptr %8, align 4
  br label %90

49:                                               ; preds = %23
  %50 = load ptr, ptr %4, align 8, !tbaa !30
  %51 = call i32 @avio_rl32(ptr noundef %50)
  %52 = icmp ne i32 %51, 0
  %53 = xor i1 %52, true
  %54 = xor i1 %53, true
  %55 = zext i1 %54 to i32
  %56 = add nsw i32 %55, 1
  store i32 %56, ptr %7, align 4, !tbaa !45
  %57 = load ptr, ptr %5, align 8, !tbaa !31
  %58 = getelementptr inbounds nuw %struct.AVStream, ptr %57, i32 0, i32 3
  %59 = load ptr, ptr %58, align 8, !tbaa !33
  %60 = getelementptr inbounds nuw %struct.AVCodecParameters, ptr %59, i32 0, i32 24
  %61 = load i32, ptr %7, align 4, !tbaa !45
  call void @av_channel_layout_default(ptr noundef %60, i32 noundef %61)
  %62 = load ptr, ptr %5, align 8, !tbaa !31
  %63 = getelementptr inbounds nuw %struct.AVStream, ptr %62, i32 0, i32 3
  %64 = load ptr, ptr %63, align 8, !tbaa !33
  %65 = getelementptr inbounds nuw %struct.AVCodecParameters, ptr %64, i32 0, i32 9
  store i32 4, ptr %65, align 8, !tbaa !46
  %66 = load ptr, ptr %5, align 8, !tbaa !31
  %67 = getelementptr inbounds nuw %struct.AVStream, ptr %66, i32 0, i32 3
  %68 = load ptr, ptr %67, align 8, !tbaa !33
  %69 = getelementptr inbounds nuw %struct.AVCodecParameters, ptr %68, i32 0, i32 9
  %70 = load i32, ptr %69, align 8, !tbaa !46
  %71 = sext i32 %70 to i64
  %72 = load i32, ptr %7, align 4, !tbaa !45
  %73 = sext i32 %72 to i64
  %74 = mul nsw i64 %71, %73
  %75 = load ptr, ptr %5, align 8, !tbaa !31
  %76 = getelementptr inbounds nuw %struct.AVStream, ptr %75, i32 0, i32 3
  %77 = load ptr, ptr %76, align 8, !tbaa !33
  %78 = getelementptr inbounds nuw %struct.AVCodecParameters, ptr %77, i32 0, i32 25
  %79 = load i32, ptr %78, align 8, !tbaa !44
  %80 = sext i32 %79 to i64
  %81 = mul nsw i64 %74, %80
  %82 = load ptr, ptr %5, align 8, !tbaa !31
  %83 = getelementptr inbounds nuw %struct.AVStream, ptr %82, i32 0, i32 3
  %84 = load ptr, ptr %83, align 8, !tbaa !33
  %85 = getelementptr inbounds nuw %struct.AVCodecParameters, ptr %84, i32 0, i32 8
  store i64 %81, ptr %85, align 8, !tbaa !47
  %86 = load ptr, ptr %5, align 8, !tbaa !31
  %87 = getelementptr inbounds nuw %struct.AVStream, ptr %86, i32 0, i32 3
  %88 = load ptr, ptr %87, align 8, !tbaa !33
  %89 = getelementptr inbounds nuw %struct.AVCodecParameters, ptr %88, i32 0, i32 26
  store i32 1, ptr %89, align 4, !tbaa !48
  store i32 0, ptr %2, align 4
  store i32 1, ptr %8, align 4
  br label %90

90:                                               ; preds = %49, %47, %22
  call void @llvm.lifetime.end.p0(i64 4, ptr %7) #5
  call void @llvm.lifetime.end.p0(i64 4, ptr %6) #5
  call void @llvm.lifetime.end.p0(i64 8, ptr %5) #5
  call void @llvm.lifetime.end.p0(i64 8, ptr %4) #5
  %91 = load i32, ptr %2, align 4
  ret i32 %91
}

; Function Attrs: nounwind uwtable
define internal i32 @apc_read_packet(ptr noundef %0, ptr noundef %1) #0 {
  %3 = alloca i32, align 4
  %4 = alloca ptr, align 8
  %5 = alloca ptr, align 8
  store ptr %0, ptr %4, align 8, !tbaa !13
  store ptr %1, ptr %5, align 8, !tbaa !49
  %6 = load ptr, ptr %4, align 8, !tbaa !13
  %7 = getelementptr inbounds nuw %struct.AVFormatContext, ptr %6, i32 0, i32 4
  %8 = load ptr, ptr %7, align 8, !tbaa !15
  %9 = load ptr, ptr %5, align 8, !tbaa !49
  %10 = call i32 @av_get_packet(ptr noundef %8, ptr noundef %9, i32 noundef 4096)
  %11 = icmp sle i32 %10, 0
  br i1 %11, label %12, label %13

12:                                               ; preds = %2
  store i32 -5, ptr %3, align 4
  br label %16

13:                                               ; preds = %2
  %14 = load ptr, ptr %5, align 8, !tbaa !49
  %15 = getelementptr inbounds nuw %struct.AVPacket, ptr %14, i32 0, i32 5
  store i32 0, ptr %15, align 4, !tbaa !51
  store i32 0, ptr %3, align 4
  br label %16

16:                                               ; preds = %13, %12
  %17 = load i32, ptr %3, align 4
  ret i32 %17
}

; Function Attrs: nounwind willreturn memory(read)
declare i32 @strncmp(ptr noundef, ptr noundef, i64 noundef) #1

; Function Attrs: nocallback nofree nosync nounwind willreturn memory(argmem: readwrite)
declare void @llvm.lifetime.start.p0(i64 immarg, ptr captures(none)) #2

declare i32 @avio_rl32(ptr noundef) #3

declare ptr @avformat_new_stream(ptr noundef, ptr noundef) #3

declare i32 @ff_get_extradata(ptr noundef, ptr noundef, ptr noundef, i32 noundef) #3

declare void @av_channel_layout_default(ptr noundef, i32 noundef) #3

; Function Attrs: nocallback nofree nosync nounwind willreturn memory(argmem: readwrite)
declare void @llvm.lifetime.end.p0(i64 immarg, ptr captures(none)) #2

declare i32 @av_get_packet(ptr noundef, ptr noundef, i32 noundef) #3


!llvm.module.flags = !{!0, !1, !2, !3}

!0 = !{i32 1, !"wchar_size", i32 4}
!1 = !{i32 8, !"PIC Level", i32 2}
!2 = !{i32 7, !"uwtable", i32 2}
!3 = !{i32 1, !"override-stack-alignment", i32 16}
!4 = !{!5, !5, i64 0}
!5 = !{!"p1 _ZTS11AVProbeData", !6, i64 0}
!6 = !{!"any pointer", !7, i64 0}
!7 = !{!"omnipotent char", !8, i64 0}
!8 = !{!"Simple C/C++ TBAA"}
!9 = !{!10, !11, i64 8}
!10 = !{!"AVProbeData", !11, i64 0, !11, i64 8, !12, i64 16, !11, i64 24}
!11 = !{!"p1 omnipotent char", !6, i64 0}
!12 = !{!"int", !7, i64 0}
!13 = !{!14, !14, i64 0}
!14 = !{!"p1 _ZTS15AVFormatContext", !6, i64 0}
!15 = !{!16, !20, i64 32}
!16 = !{!"AVFormatContext", !17, i64 0, !18, i64 8, !19, i64 16, !6, i64 24, !20, i64 32, !12, i64 40, !12, i64 44, !21, i64 48, !12, i64 56, !23, i64 64, !12, i64 72, !24, i64 80, !11, i64 88, !25, i64 96, !25, i64 104, !25, i64 112, !12, i64 120, !12, i64 124, !12, i64 128, !25, i64 136, !25, i64 144, !11, i64 152, !12, i64 160, !12, i64 164, !26, i64 168, !12, i64 176, !12, i64 180, !12, i64 184, !12, i64 188, !27, i64 192, !25, i64 200, !12, i64 208, !12, i64 212, !28, i64 216, !12, i64 232, !12, i64 236, !12, i64 240, !12, i64 244, !25, i64 248, !12, i64 256, !12, i64 260, !12, i64 264, !12, i64 268, !12, i64 272, !12, i64 276, !12, i64 280, !12, i64 284, !12, i64 288, !12, i64 292, !12, i64 296, !12, i64 300, !25, i64 304, !12, i64 312, !12, i64 316, !12, i64 320, !12, i64 324, !12, i64 328, !11, i64 336, !11, i64 344, !11, i64 352, !11, i64 360, !12, i64 368, !29, i64 376, !29, i64 384, !29, i64 392, !29, i64 400, !12, i64 408, !6, i64 416, !6, i64 424, !25, i64 432, !11, i64 440, !6, i64 448, !6, i64 456, !25, i64 464}
!17 = !{!"p1 _ZTS7AVClass", !6, i64 0}
!18 = !{!"p1 _ZTS13AVInputFormat", !6, i64 0}
!19 = !{!"p1 _ZTS14AVOutputFormat", !6, i64 0}
!20 = !{!"p1 _ZTS11AVIOContext", !6, i64 0}
!21 = !{!"p2 _ZTS8AVStream", !22, i64 0}
!22 = !{!"any p2 pointer", !6, i64 0}
!23 = !{!"p2 _ZTS13AVStreamGroup", !22, i64 0}
!24 = !{!"p2 _ZTS9AVChapter", !22, i64 0}
!25 = !{!"long", !7, i64 0}
!26 = !{!"p2 _ZTS9AVProgram", !22, i64 0}
!27 = !{!"p1 _ZTS12AVDictionary", !6, i64 0}
!28 = !{!"AVIOInterruptCB", !6, i64 0, !6, i64 8}
!29 = !{!"p1 _ZTS7AVCodec", !6, i64 0}
!30 = !{!20, !20, i64 0}
!31 = !{!32, !32, i64 0}
!32 = !{!"p1 _ZTS8AVStream", !6, i64 0}
!33 = !{!34, !35, i64 16}
!34 = !{!"AVStream", !17, i64 0, !12, i64 8, !12, i64 12, !35, i64 16, !6, i64 24, !36, i64 32, !25, i64 40, !25, i64 48, !25, i64 56, !12, i64 64, !12, i64 68, !36, i64 72, !27, i64 80, !36, i64 88, !37, i64 96, !12, i64 200, !36, i64 204, !12, i64 212}
!35 = !{!"p1 _ZTS17AVCodecParameters", !6, i64 0}
!36 = !{!"AVRational", !12, i64 0, !12, i64 4}
!37 = !{!"AVPacket", !38, i64 0, !25, i64 8, !25, i64 16, !11, i64 24, !12, i64 32, !12, i64 36, !12, i64 40, !39, i64 48, !12, i64 56, !25, i64 64, !25, i64 72, !6, i64 80, !38, i64 88, !36, i64 96}
!38 = !{!"p1 _ZTS11AVBufferRef", !6, i64 0}
!39 = !{!"p1 _ZTS16AVPacketSideData", !6, i64 0}
!40 = !{!41, !12, i64 0}
!41 = !{!"AVCodecParameters", !12, i64 0, !12, i64 4, !12, i64 8, !11, i64 16, !12, i64 24, !39, i64 32, !12, i64 40, !12, i64 44, !25, i64 48, !12, i64 56, !12, i64 60, !12, i64 64, !12, i64 68, !12, i64 72, !12, i64 76, !36, i64 80, !36, i64 88, !12, i64 96, !12, i64 100, !12, i64 104, !12, i64 108, !12, i64 112, !12, i64 116, !12, i64 120, !42, i64 128, !12, i64 152, !12, i64 156, !12, i64 160, !12, i64 164, !12, i64 168, !12, i64 172}
!42 = !{!"AVChannelLayout", !12, i64 0, !12, i64 4, !7, i64 8, !6, i64 16}
!43 = !{!41, !12, i64 4}
!44 = !{!41, !12, i64 152}
!45 = !{!12, !12, i64 0}
!46 = !{!41, !12, i64 56}
!47 = !{!41, !25, i64 48}
!48 = !{!41, !12, i64 156}
!49 = !{!50, !50, i64 0}
!50 = !{!"p1 _ZTS8AVPacket", !6, i64 0}
!51 = !{!37, !12, i64 36}
