; ModuleID = 'bench/ffmpeg/original/apc.ll'
source_filename = "bench/ffmpeg/original/apc.ll"
target datalayout = "e-m:e-p270:32:32-p271:32:32-p272:64:64-i64:64-i128:128-f80:128-n8:16:32:64-S128"
target triple = "x86_64-pc-linux-gnu"

@.str = private unnamed_addr constant [4 x i8] c"apc\00", align 1
@.str.1 = private unnamed_addr constant [9 x i8] c"CRYO APC\00", align 1
@ff_apc_demuxer = local_unnamed_addr constant { { ptr, ptr, i32, [4 x i8], ptr, ptr, ptr, ptr }, i32, i32, i32, [4 x i8], ptr, ptr, ptr, ptr, ptr, ptr, ptr, ptr, ptr, ptr } { { ptr, ptr, i32, [4 x i8], ptr, ptr, ptr, ptr } { ptr @.str, ptr @.str.1, i32 0, [4 x i8] zeroinitializer, ptr null, ptr null, ptr null, ptr null }, i32 0, i32 0, i32 0, [4 x i8] zeroinitializer, ptr @apc_probe, ptr @apc_read_header, ptr @apc_read_packet, ptr null, ptr null, ptr null, ptr null, ptr null, ptr null, ptr null }, align 8
@.str.2 = private unnamed_addr constant [9 x i8] c"CRYO_APC\00", align 1

; Function Attrs: mustprogress nofree norecurse nounwind willreturn memory(read, inaccessiblemem: none) uwtable
define internal range(i32 0, 101) i32 @apc_probe(ptr noundef readonly captures(none) %0) #0 {
  %2 = getelementptr inbounds nuw i8, ptr %0, i64 8
  %3 = load ptr, ptr %2, align 8, !tbaa !4
  %4 = tail call i32 @strncmp(ptr noundef nonnull dereferenceable(1) %3, ptr noundef nonnull dereferenceable(9) @.str.2, i64 noundef 8) #4
  %.not = icmp eq i32 %4, 0
  %. = select i1 %.not, i32 100, i32 0
  ret i32 %.
}

; Function Attrs: nounwind uwtable
define internal range(i32 -2147483648, 1) i32 @apc_read_header(ptr noundef %0) #1 {
  %2 = getelementptr inbounds nuw i8, ptr %0, i64 32
  %3 = load ptr, ptr %2, align 8, !tbaa !11
  %4 = tail call i32 @avio_rl32(ptr noundef %3) #5
  %5 = tail call i32 @avio_rl32(ptr noundef %3) #5
  %6 = tail call i32 @avio_rl32(ptr noundef %3) #5
  %7 = tail call ptr @avformat_new_stream(ptr noundef %0, ptr noundef null) #5
  %.not = icmp eq ptr %7, null
  br i1 %.not, label %32, label %8

8:                                                ; preds = %1
  %9 = getelementptr inbounds nuw i8, ptr %7, i64 16
  %10 = load ptr, ptr %9, align 8, !tbaa !26
  store i32 1, ptr %10, align 8, !tbaa !33
  %11 = getelementptr inbounds nuw i8, ptr %10, i64 4
  store i32 69661, ptr %11, align 4, !tbaa !36
  %12 = tail call i32 @avio_rl32(ptr noundef %3) #5
  %13 = tail call i32 @avio_rl32(ptr noundef %3) #5
  %14 = load ptr, ptr %9, align 8, !tbaa !26
  %15 = getelementptr inbounds nuw i8, ptr %14, i64 152
  store i32 %13, ptr %15, align 8, !tbaa !37
  %16 = tail call i32 @ff_get_extradata(ptr noundef nonnull %0, ptr noundef %14, ptr noundef %3, i32 noundef 8) #5
  %17 = icmp slt i32 %16, 0
  br i1 %17, label %32, label %18

18:                                               ; preds = %8
  %19 = tail call i32 @avio_rl32(ptr noundef %3) #5
  %.not26.not = icmp eq i32 %19, 0
  %20 = select i1 %.not26.not, i32 1, i32 2
  %21 = load ptr, ptr %9, align 8, !tbaa !26
  %22 = getelementptr inbounds nuw i8, ptr %21, i64 128
  tail call void @av_channel_layout_default(ptr noundef nonnull %22, i32 noundef %20) #5
  %23 = load ptr, ptr %9, align 8, !tbaa !26
  %24 = getelementptr inbounds nuw i8, ptr %23, i64 56
  store i32 4, ptr %24, align 8, !tbaa !38
  %25 = getelementptr inbounds nuw i8, ptr %23, i64 152
  %26 = load i32, ptr %25, align 8, !tbaa !37
  %27 = sext i32 %26 to i64
  %28 = select i1 %.not26.not, i64 2, i64 3
  %29 = shl nsw i64 %27, %28
  %30 = getelementptr inbounds nuw i8, ptr %23, i64 48
  store i64 %29, ptr %30, align 8, !tbaa !39
  %31 = getelementptr inbounds nuw i8, ptr %23, i64 156
  store i32 1, ptr %31, align 4, !tbaa !40
  br label %32

32:                                               ; preds = %8, %1, %18
  %.0 = phi i32 [ 0, %18 ], [ -12, %1 ], [ %16, %8 ]
  ret i32 %.0
}

; Function Attrs: nounwind uwtable
define internal range(i32 -5, 1) i32 @apc_read_packet(ptr noundef readonly captures(none) %0, ptr noundef %1) #1 {
  %3 = getelementptr inbounds nuw i8, ptr %0, i64 32
  %4 = load ptr, ptr %3, align 8, !tbaa !11
  %5 = tail call i32 @av_get_packet(ptr noundef %4, ptr noundef %1, i32 noundef 4096) #5
  %6 = icmp slt i32 %5, 1
  br i1 %6, label %9, label %7

7:                                                ; preds = %2
  %8 = getelementptr inbounds nuw i8, ptr %1, i64 36
  store i32 0, ptr %8, align 4, !tbaa !41
  br label %9

9:                                                ; preds = %2, %7
  %.0 = phi i32 [ 0, %7 ], [ -5, %2 ]
  ret i32 %.0
}

; Function Attrs: mustprogress nocallback nofree nounwind willreturn memory(argmem: read)
declare i32 @strncmp(ptr noundef captures(none), ptr noundef captures(none), i64 noundef) local_unnamed_addr #2

declare i32 @avio_rl32(ptr noundef) local_unnamed_addr #3

declare ptr @avformat_new_stream(ptr noundef, ptr noundef) local_unnamed_addr #3

declare i32 @ff_get_extradata(ptr noundef, ptr noundef, ptr noundef, i32 noundef) local_unnamed_addr #3

declare void @av_channel_layout_default(ptr noundef, i32 noundef) local_unnamed_addr #3

declare i32 @av_get_packet(ptr noundef, ptr noundef, i32 noundef) local_unnamed_addr #3


!llvm.module.flags = !{!0, !1, !2, !3}

!0 = !{i32 1, !"wchar_size", i32 4}
!1 = !{i32 8, !"PIC Level", i32 2}
!2 = !{i32 7, !"uwtable", i32 2}
!3 = !{i32 1, !"override-stack-alignment", i32 16}
!4 = !{!5, !6, i64 8}
!5 = !{!"AVProbeData", !6, i64 0, !6, i64 8, !10, i64 16, !6, i64 24}
!6 = !{!"p1 omnipotent char", !7, i64 0}
!7 = !{!"any pointer", !8, i64 0}
!8 = !{!"omnipotent char", !9, i64 0}
!9 = !{!"Simple C/C++ TBAA"}
!10 = !{!"int", !8, i64 0}
!11 = !{!12, !16, i64 32}
!12 = !{!"AVFormatContext", !13, i64 0, !14, i64 8, !15, i64 16, !7, i64 24, !16, i64 32, !10, i64 40, !10, i64 44, !17, i64 48, !10, i64 56, !19, i64 64, !10, i64 72, !20, i64 80, !6, i64 88, !21, i64 96, !21, i64 104, !21, i64 112, !10, i64 120, !10, i64 124, !10, i64 128, !21, i64 136, !21, i64 144, !6, i64 152, !10, i64 160, !10, i64 164, !22, i64 168, !10, i64 176, !10, i64 180, !10, i64 184, !10, i64 188, !23, i64 192, !21, i64 200, !10, i64 208, !10, i64 212, !24, i64 216, !10, i64 232, !10, i64 236, !10, i64 240, !10, i64 244, !21, i64 248, !10, i64 256, !10, i64 260, !10, i64 264, !10, i64 268, !10, i64 272, !10, i64 276, !10, i64 280, !10, i64 284, !10, i64 288, !10, i64 292, !10, i64 296, !10, i64 300, !21, i64 304, !10, i64 312, !10, i64 316, !10, i64 320, !10, i64 324, !10, i64 328, !6, i64 336, !6, i64 344, !6, i64 352, !6, i64 360, !10, i64 368, !25, i64 376, !25, i64 384, !25, i64 392, !25, i64 400, !10, i64 408, !7, i64 416, !7, i64 424, !21, i64 432, !6, i64 440, !7, i64 448, !7, i64 456, !21, i64 464}
!13 = !{!"p1 _ZTS7AVClass", !7, i64 0}
!14 = !{!"p1 _ZTS13AVInputFormat", !7, i64 0}
!15 = !{!"p1 _ZTS14AVOutputFormat", !7, i64 0}
!16 = !{!"p1 _ZTS11AVIOContext", !7, i64 0}
!17 = !{!"p2 _ZTS8AVStream", !18, i64 0}
!18 = !{!"any p2 pointer", !7, i64 0}
!19 = !{!"p2 _ZTS13AVStreamGroup", !18, i64 0}
!20 = !{!"p2 _ZTS9AVChapter", !18, i64 0}
!21 = !{!"long", !8, i64 0}
!22 = !{!"p2 _ZTS9AVProgram", !18, i64 0}
!23 = !{!"p1 _ZTS12AVDictionary", !7, i64 0}
!24 = !{!"AVIOInterruptCB", !7, i64 0, !7, i64 8}
!25 = !{!"p1 _ZTS7AVCodec", !7, i64 0}
!26 = !{!27, !28, i64 16}
!27 = !{!"AVStream", !13, i64 0, !10, i64 8, !10, i64 12, !28, i64 16, !7, i64 24, !29, i64 32, !21, i64 40, !21, i64 48, !21, i64 56, !10, i64 64, !10, i64 68, !29, i64 72, !23, i64 80, !29, i64 88, !30, i64 96, !10, i64 200, !29, i64 204, !10, i64 212}
!28 = !{!"p1 _ZTS17AVCodecParameters", !7, i64 0}
!29 = !{!"AVRational", !10, i64 0, !10, i64 4}
!30 = !{!"AVPacket", !31, i64 0, !21, i64 8, !21, i64 16, !6, i64 24, !10, i64 32, !10, i64 36, !10, i64 40, !32, i64 48, !10, i64 56, !21, i64 64, !21, i64 72, !7, i64 80, !31, i64 88, !29, i64 96}
!31 = !{!"p1 _ZTS11AVBufferRef", !7, i64 0}
!32 = !{!"p1 _ZTS16AVPacketSideData", !7, i64 0}
!33 = !{!34, !10, i64 0}
!34 = !{!"AVCodecParameters", !10, i64 0, !10, i64 4, !10, i64 8, !6, i64 16, !10, i64 24, !32, i64 32, !10, i64 40, !10, i64 44, !21, i64 48, !10, i64 56, !10, i64 60, !10, i64 64, !10, i64 68, !10, i64 72, !10, i64 76, !29, i64 80, !29, i64 88, !10, i64 96, !10, i64 100, !10, i64 104, !10, i64 108, !10, i64 112, !10, i64 116, !10, i64 120, !35, i64 128, !10, i64 152, !10, i64 156, !10, i64 160, !10, i64 164, !10, i64 168, !10, i64 172}
!35 = !{!"AVChannelLayout", !10, i64 0, !10, i64 4, !8, i64 8, !7, i64 16}
!36 = !{!34, !10, i64 4}
!37 = !{!34, !10, i64 152}
!38 = !{!34, !10, i64 56}
!39 = !{!34, !21, i64 48}
!40 = !{!34, !10, i64 156}
!41 = !{!30, !10, i64 36}
